(dp0
Vengine
p1
Vpdflatex
p2
sVpackages
p3
c__builtin__
set
p4
((lp5
Vbreqn
p6
aValgorithm
p7
aVbooktabs
p8
aVamsmath
p9
aVfloat
p10
aValgpseudocode
p11
aVblindtext
p12
aVdsfont
p13
aVgraphicx
p14
aValgcompatible
p15
atp16
Rp17
sVfiles_with_guttermarks
p18
g4
((lp19
V/Users/carter/Documents/School/Summer_2019/Research/MVSN-FMM/manuscript/./manuscript.tex
p20
aV/Users/carter/Documents/School/Summer_2019/Research/MVSN-FMM/manuscript/manuscript.tex
p21
aS'manuscript.tex'
p22
atp23
Rp24
sVsynctex
p25
I01
s.