(dp0
Vengine
p1
Vpdflatex
p2
sVpackages
p3
c__builtin__
set
p4
((lp5
tp6
Rp7
sVfiles_with_guttermarks
p8
g4
((lp9
V/Users/carter/Documents/School/Summer_2019/Research/MVSN-FMM/manuscript/./manuscript.tex
p10
aS'manuscript.tex'
p11
atp12
Rp13
sVsynctex
p14
I01
s.