(dp0
Vengine
p1
Vpdflatex
p2
sVpackages
p3
c__builtin__
set
p4
((lp5
Vblindtext
p6
aVbooktabs
p7
aVgraphicx
p8
aVbeamerposter
p9
atp10
Rp11
sVfiles_with_guttermarks
p12
g4
((lp13
S'ASA-poster.tex'
p14
aV/Users/carter/Documents/School/Summer_2019/Research/MVSN-FMM/poster/./ASA-poster.tex
p15
aV/Users/carter/Documents/School/Summer_2019/Research/MVSN-FMM/poster/ASA-poster.tex
p16
atp17
Rp18
sVsynctex
p19
I01
s.